(lp0
V\u0410\u0431\u0445\u0430\u0437\u0438\u044f
p1
aV\u0420\u043e\u0441\u0441\u0438\u0439\u0441\u043a\u043e\u0439 \u0424\u0435\u0434\u0435\u0440\u0430\u0446\u0438\u0435\u0439
p2
aV\u041d\u0438\u043a\u0430\u0440\u0430\u0433\u0443\u0430
p3
aV\u0412\u0435\u043d\u0435\u0441\u0443\u044d\u043b\u043e\u0439
p4
aV\u041d\u0430\u0443\u0440\u0443
p5
aV\u042e\u0436\u043d\u043e\u0439 \u041e\u0441\u0435\u0442\u0438\u0435\u0439
p6
aV\u041d\u041a\u0420
p7
aV\u041f\u041c\u0420
p8
aV\u0413\u0440\u0443\u0437\u0438\u0438
p9
aV\u0413\u0440\u0443\u0437\u0438\u0438
p10
aV\u0410\u0432\u0441\u0442\u0440\u0430\u043b\u0438\u044f
p11
aV\u0410\u0432\u0441\u0442\u0440\u0438\u044f
p12
aV\u0410\u0437\u0435\u0440\u0431\u0430\u0439\u0434\u0436\u0430\u043d
p13
aV\u0410\u0437\u043e\u0440\u0441\u043a\u0438\u0435 \u043e\u0441\u0442\u0440\u043e\u0432\u0430
p14
aV\u041f\u043e\u0440\u0442\u0443\u0433\u0430\u043b\u0438\u0438
p15
aV\u0410\u043b\u0430\u043d\u0434\u0441\u043a\u0438\u0435 \u043e\u0441\u0442\u0440\u043e\u0432\u0430
p16
aV\u0424\u0438\u043d\u043b\u044f\u043d\u0434\u0438\u0438
p17
aV\u0410\u043b\u0431\u0430\u043d\u0438\u044f
p18
aV\u0410\u043b\u0436\u0438\u0440
p19
aV\u0410\u043c\u0435\u0440\u0438\u043a\u0430\u043d\u0441\u043a\u043e\u0435 \u0421\u0430\u043c\u043e\u0430
p20
aV\u0421\u0428\u0410
p21
aV\u0410\u043d\u0433\u0438\u043b\u044c\u044f
p22
aV\u0410\u043d\u0433\u043e\u043b\u0430
p23
aV\u0410\u043d\u0434\u043e\u0440\u0440\u0430
p24
aV\u0410\u043d\u0442\u0438\u0433\u0443\u0430 \u0438 \u0411\u0430\u0440\u0431\u0443\u0434\u0430
p25
aV\u0410\u043e\u043c\u044b\u043d\u044c
p26
aV\u041a\u0438\u0442\u0430\u0439\u0441\u043a\u043e\u0439 \u041d\u0430\u0440\u043e\u0434\u043d\u043e\u0439 \u0420\u0435\u0441\u043f\u0443\u0431\u043b\u0438\u043a\u043e\u0439
p27
aV\u0410\u0440\u0433\u0435\u043d\u0442\u0438\u043d\u0430
p28
aV\u0410\u0440\u043c\u0435\u043d\u0438\u044f
p29
aV\u0410\u0440\u0443\u0431\u0430
p30
aV\u041a\u043e\u0440\u043e\u043b\u0435\u0432\u0441\u0442\u0432\u0430 \u041d\u0438\u0434\u0435\u0440\u043b\u0430\u043d\u0434\u043e\u0432
p31
aV\u0410\u0444\u0433\u0430\u043d\u0438\u0441\u0442\u0430\u043d
p32
aV\u0411\u0430\u0433\u0430\u043c\u044b
p33
aV\u0411\u0430\u043d\u0433\u043b\u0430\u0434\u0435\u0448
p34
aV\u0411\u0430\u0440\u0431\u0430\u0434\u043e\u0441
p35
aV\u0411\u0430\u0445\u0440\u0435\u0439\u043d
p36
aV\u0411\u0435\u043b\u0430\u0440\u0443\u0441\u044c
p37
aV\u0411\u0435\u043b\u0438\u0437
p38
aV\u0411\u0435\u043b\u044c\u0433\u0438\u044f
p39
aV\u0411\u0435\u043d\u0438\u043d
p40
aV\u0411\u0435\u0440\u043c\u0443\u0434\u044b
p41
aV\u0411\u043e\u043b\u0433\u0430\u0440\u0438\u044f
p42
aV\u0411\u043e\u043b\u0438\u0432\u0438\u044f
p43
aV\u0411\u043e\u0441\u043d\u0438\u044f \u0438 \u0413\u0435\u0440\u0446\u0435\u0433\u043e\u0432\u0438\u043d\u0430
p44
aV\u0420\u0435\u0441\u043f\u0443\u0431\u043b\u0438\u043a\u0438 \u0421\u0435\u0440\u0431\u0441\u043a\u043e\u0439
p45
aV\u0424\u0435\u0434\u0435\u0440\u0430\u0446\u0438\u0438 \u0411\u043e\u0441\u043d\u0438\u0438 \u0438 \u0413\u0435\u0440\u0446\u0435\u0433\u043e\u0432\u0438\u043d\u044b
p46
aV\u0411\u043e\u0442\u0441\u0432\u0430\u043d\u0430
p47
aV\u0411\u0440\u0430\u0437\u0438\u043b\u0438\u044f
p48
aV\u0427\u0430\u0433\u043e\u0441
p49
aV\u0411\u0440\u0443\u043d\u0435\u0439
p50
aV\u0411\u0443\u0440\u043a\u0438\u043d\u0430 \u0424\u0430\u0441\u043e
p51
aV\u0411\u0443\u0440\u0443\u043d\u0434\u0438
p52
aV\u0411\u0443\u0442\u0430\u043d
p53
aV\u0412\u0430\u043d\u0443\u0430\u0442\u0443
p54
aV\u0412\u0430\u0442\u0438\u043a\u0430\u043d
p55
aV\u0412\u0435\u043b\u0438\u043a\u043e\u0431\u0440\u0438\u0442\u0430\u043d\u0438\u044f
p56
aV\u0412\u0435\u043d\u0433\u0440\u0438\u044f
p57
aV\u0412\u0435\u043d\u0435\u0441\u0443\u044d\u043b\u0430
p58
aV\u0411\u0440\u0438\u0442\u0430\u043d\u0441\u043a\u0438\u0435 \u0412\u0438\u0440\u0433\u0438\u043d\u0441\u043a\u0438\u0435 \u043e\u0441\u0442\u0440\u043e\u0432\u0430
p59
aV\u0410\u043c\u0435\u0440\u0438\u043a\u0430\u043d\u0441\u043a\u0438\u0435 \u0412\u0438\u0440\u0433\u0438\u043d\u0441\u043a\u0438\u0435 \u043e\u0441\u0442\u0440\u043e\u0432\u0430
p60
aV\u0421\u0428\u0410
p61
aV\u0412\u043e\u0441\u0442\u043e\u0447\u043d\u044b\u0439 \u0422\u0438\u043c\u043e\u0440
p62
aV\u0412\u044c\u0435\u0442\u043d\u0430\u043c
p63
aV\u0413\u0430\u0431\u043e\u043d
p64
aV\u0413\u0430\u0432\u0430\u0439\u0438
p65
aV\u0421\u0428\u0410
p66
aV\u0413\u0430\u0438\u0442\u0438
p67
aV\u0413\u0430\u0439\u0430\u043d\u0430
p68
aV\u0413\u0430\u043c\u0431\u0438\u044f
p69
aV\u0413\u0430\u043d\u0430
p70
aV\u0413\u0432\u0430\u0434\u0435\u043b\u0443\u043f\u0430
p71
aV\u0413\u0432\u0430\u0442\u0435\u043c\u0430\u043b\u0430
p72
aV\u0413\u0432\u0438\u043d\u0435\u044f
p73
aV\u0413\u0432\u0438\u043d\u0435\u044f-\u0411\u0438\u0441\u0430\u0443
p74
aV\u0413\u0435\u0440\u043c\u0430\u043d\u0438\u044f
p75
aV\u0413\u0435\u0440\u043d\u0441\u0438
p76
aV\u0412\u0435\u043b\u0438\u043a\u043e\u0431\u0440\u0438\u0442\u0430\u043d\u0438\u0438
p77
aV\u041d\u043e\u0440\u043c\u0430\u043d\u0434\u0441\u043a\u0438\u0445 \u043e\u0441\u0442\u0440\u043e\u0432\u043e\u0432
p78
aV\u0413\u0438\u0431\u0440\u0430\u043b\u0442\u0430\u0440
p79
aV\u0413\u043e\u043d\u0434\u0443\u0440\u0430\u0441
p80
aV\u0413\u043e\u043d\u043a\u043e\u043d\u0433
p81
aV\u041a\u0438\u0442\u0430\u0435\u043c
p82
aV\u0413\u0440\u0435\u043d\u0430\u0434\u0430
p83
aV\u0413\u0440\u0435\u043d\u043b\u0430\u043d\u0434\u0438\u044f
p84
aV\u0414\u0430\u043d\u0438\u0438
p85
aV\u0413\u0440\u0435\u0446\u0438\u044f
p86
aV\u0413\u0440\u0443\u0437\u0438\u044f
p87
aV\u0413\u0443\u0430\u043c
p88
aV\u0421\u0428\u0410
p89
aV\u0414\u0430\u043d\u0438\u044f
p90
aV\u0414\u0436\u0435\u0440\u0441\u0438
p91
aV\u0412\u0435\u043b\u0438\u043a\u043e\u0431\u0440\u0438\u0442\u0430\u043d\u0438\u0438
p92
aV\u041d\u043e\u0440\u043c\u0430\u043d\u0434\u0441\u043a\u0438\u0445 \u043e\u0441\u0442\u0440\u043e\u0432\u043e\u0432
p93
aV\u0414\u0436\u0438\u0431\u0443\u0442\u0438
p94
aV\u0414\u043e\u043c\u0438\u043d\u0438\u043a\u0430
p95
aV\u0414\u043e\u043c\u0438\u043d\u0438\u043a\u0430\u043d\u0441\u043a\u0430\u044f \u0420\u0435\u0441\u043f\u0443\u0431\u043b\u0438\u043a\u0430
p96
aV\u0415\u0433\u0438\u043f\u0435\u0442
p97
aV\u0417\u0430\u043c\u0431\u0438\u044f
p98
aV\u0417\u0438\u043c\u0431\u0430\u0431\u0432\u0435
p99
aV\u0418\u0437\u0440\u0430\u0438\u043b\u044c
p100
aV\u0418\u043d\u0434\u0438\u044f
p101
aV\u0418\u043d\u0434\u043e\u043d\u0435\u0437\u0438\u044f
p102
aV\u0418\u043e\u0440\u0434\u0430\u043d\u0438\u044f
p103
aV\u0418\u0440\u0430\u043a
p104
aV\u0418\u0440\u0430\u043d
p105
aV\u0418\u0440\u043b\u0430\u043d\u0434\u0438\u044f
p106
aV\u0418\u0441\u043b\u0430\u043d\u0434\u0438\u044f
p107
aV\u0418\u0441\u043f\u0430\u043d\u0438\u044f
p108
aV\u0418\u0442\u0430\u043b\u0438\u044f
p109
aV\u0419\u0435\u043c\u0435\u043d
p110
aV\u041a\u0430\u0431\u043e-\u0412\u0435\u0440\u0434\u0435
p111
aV\u041a\u0430\u0437\u0430\u0445\u0441\u0442\u0430\u043d
p112
aV\u041a\u0430\u0439\u043c\u0430\u043d\u043e\u0432\u044b \u043e\u0441\u0442\u0440\u043e\u0432\u0430
p113
aV\u041a\u0430\u043c\u0431\u043e\u0434\u0436\u0430
p114
aV\u041a\u0430\u043c\u0435\u0440\u0443\u043d
p115
aV\u041a\u0430\u043d\u0430\u0434\u0430
p116
aV\u041a\u0430\u0442\u0430\u0440
p117
aV\u041a\u0435\u043d\u0438\u044f
p118
aV\u041a\u0438\u043f\u0440
p119
aV\u041a\u0438\u0440\u0433\u0438\u0437\u0438\u044f
p120
aV\u041a\u0438\u0440\u0438\u0431\u0430\u0442\u0438
p121
aV\u041a\u041d\u0420
p122
aV\u041a\u0438\u0442\u0430\u0439\u0441\u043a\u0430\u044f \u0420\u0435\u0441\u043f\u0443\u0431\u043b\u0438\u043a\u0430
p123
aV\u041a\u041d\u0420
p124
aV\u041a\u041d\u0420
p125
aV\u041a\u0438\u0442\u0430\u0439
p126
aV\u041e\u041e\u041d
p127
aV\u041a\u043e\u043a\u043e\u0441\u043e\u0432\u044b\u0435 \u043e\u0441\u0442\u0440\u043e\u0432\u0430
p128
aV\u0410\u0432\u0441\u0442\u0440\u0430\u043b\u0438\u0438
p129
aV\u041a\u043e\u043b\u0443\u043c\u0431\u0438\u044f
p130
aV\u041a\u043e\u043c\u043e\u0440\u044b
p131
aV\u0420\u0435\u0441\u043f\u0443\u0431\u043b\u0438\u043a\u0430 \u041a\u043e\u043d\u0433\u043e
p132
aV\u0414\u0420 \u041a\u043e\u043d\u0433\u043e
p133
aV\u0417\u0430\u0438\u0440
p134
aV\u041a\u041d\u0414\u0420
p135
aV\u0420\u0435\u0441\u043f\u0443\u0431\u043b\u0438\u043a\u0430 \u041a\u043e\u0440\u0435\u044f
p136
aV\u0420\u0435\u0441\u043f\u0443\u0431\u043b\u0438\u043a\u0430 \u041a\u043e\u0441\u043e\u0432\u043e
p137
aV\u041e\u041e\u041d
p138
aV\u0415\u0432\u0440\u043e\u0441\u043e\u044e\u0437\u0430
p139
aV\u0421\u0435\u0440\u0431\u0438\u0438
p140
aV\u0410\u0432\u0442\u043e\u043d\u043e\u043c\u043d\u044b\u043c \u043a\u0440\u0430\u0435\u043c \u041a\u043e\u0441\u043e\u0432\u043e \u0438 \u041c\u0435\u0442\u043e\u0445\u0438\u044f
p141
aV\u0421\u0435\u0440\u0431\u0438\u0438
p142
aV\u041a\u043e\u0441\u0442\u0430-\u0420\u0438\u043a\u0430
p143
aV\u041a\u043e\u0442-\u0434\u2019\u0418\u0432\u0443\u0430\u0440
p144
aV\u041a\u0443\u0431\u0430
p145
aV\u041a\u0443\u0432\u0435\u0439\u0442
p146
aV\u041e\u0441\u0442\u0440\u043e\u0432\u0430 \u041a\u0443\u043a\u0430
p147
aV\u041d\u043e\u0432\u043e\u0439 \u0417\u0435\u043b\u0430\u043d\u0434\u0438\u0435\u0439
p148
aV\u041a\u044e\u0440\u0430\u0441\u0430\u043e
p149
aV\u041a\u043e\u0440\u043e\u043b\u0435\u0432\u0441\u0442\u0432\u0430 \u041d\u0438\u0434\u0435\u0440\u043b\u0430\u043d\u0434\u043e\u0432
p150
aV\u041b\u0430\u043e\u0441
p151
aV\u041b\u0430\u0442\u0432\u0438\u044f
p152
aV\u041b\u0435\u0441\u043e\u0442\u043e
p153
aV\u041b\u0438\u0431\u0435\u0440\u0438\u044f
p154
aV\u041b\u0438\u0432\u0430\u043d
p155
aV\u041b\u0438\u0432\u0438\u044f
p156
aV\u041b\u0438\u0442\u0432\u0430
p157
aV\u041b\u0438\u0445\u0442\u0435\u043d\u0448\u0442\u0435\u0439\u043d
p158
aV\u041b\u044e\u043a\u0441\u0435\u043c\u0431\u0443\u0440\u0433
p159
aV\u041c\u0430\u0432\u0440\u0438\u043a\u0438\u0439
p160
aV\u041c\u0430\u0432\u0440\u0438\u0442\u0430\u043d\u0438\u044f
p161
aV\u041c\u0430\u0434\u0430\u0433\u0430\u0441\u043a\u0430\u0440
p162
aV\u041c\u0430\u0434\u0435\u0439\u0440\u0430
p163
aV\u041f\u043e\u0440\u0442\u0443\u0433\u0430\u043b\u0438\u0438
p164
aV\u041c\u0430\u0439\u043e\u0442\u0442\u0430
p165
aV\u0424\u0440\u0430\u043d\u0446\u0438\u0438
p166
aV\u0420\u0435\u0441\u043f\u0443\u0431\u043b\u0438\u043a\u0430 \u041c\u0430\u043a\u0435\u0434\u043e\u043d\u0438\u044f
p167
aV\u041c\u0430\u043b\u0430\u0432\u0438
p168
aV\u041c\u0430\u043b\u0430\u0439\u0437\u0438\u044f
p169
aV\u041c\u0430\u043b\u0438
p170
aV\u041c\u0430\u043b\u044c\u0434\u0438\u0432\u044b
p171
aV\u041c\u0430\u043b\u044c\u0442\u0430
p172
aV\u041c\u0430\u0440\u043e\u043a\u043a\u043e
p173
aV\u041c\u0430\u0440\u0442\u0438\u043d\u0438\u043a\u0430
p174
aV\u041c\u0430\u0440\u0448\u0430\u043b\u043b\u043e\u0432\u044b \u041e\u0441\u0442\u0440\u043e\u0432\u0430
p175
aV\u041c\u0435\u043a\u0441\u0438\u043a\u0430
p176
aV\u041c\u0438\u043a\u0440\u043e\u043d\u0435\u0437\u0438\u044f
p177
aV\u041c\u043e\u0437\u0430\u043c\u0431\u0438\u043a
p178
aV\u041c\u043e\u043b\u0434\u0430\u0432\u0438\u044f
p179
aV\u041c\u043e\u043d\u0430\u043a\u043e
p180
aV\u041c\u043e\u043d\u0433\u043e\u043b\u0438\u044f
p181
aV\u041c\u043e\u043d\u0442\u0441\u0435\u0440\u0440\u0430\u0442
p182
aV\u041c\u044c\u044f\u043d\u043c\u0430
p183
aV\u041e\u0441\u0442\u0440\u043e\u0432 \u041c\u044d\u043d
p184
aV\u0412\u0435\u043b\u0438\u043a\u043e\u0431\u0440\u0438\u0442\u0430\u043d\u0438\u0438
p185
aV\u041d\u0430\u0433\u043e\u0440\u043d\u043e-\u041a\u0430\u0440\u0430\u0431\u0430\u0445\u0441\u043a\u0430\u044f \u0420\u0435\u0441\u043f\u0443\u0431\u043b\u0438\u043a\u0430
p186
aV\u0410\u0431\u0445\u0430\u0437\u0438\u0435\u0439
p187
aV\u042e\u0436\u043d\u043e\u0439 \u041e\u0441\u0435\u0442\u0438\u0435\u0439
p188
aV\u041f\u041c\u0420
p189
aV\u0410\u0437\u0435\u0440\u0431\u0430\u0439\u0434\u0436\u0430\u043d\u0441\u043a\u043e\u0439 \u0420\u0435\u0441\u043f\u0443\u0431\u043b\u0438\u043a\u0438
p190
aV\u0410\u0437\u0435\u0440\u0431\u0430\u0439\u0434\u0436\u0430\u043d\u0430
p191
aV\u041d\u0430\u043c\u0438\u0431\u0438\u044f
p192
aV\u041d\u0430\u0443\u0440\u0443
p193
aV\u041d\u0435\u043f\u0430\u043b
p194
aV\u041d\u0438\u0433\u0435\u0440
p195
aV\u041d\u0438\u0433\u0435\u0440\u0438\u044f
p196
aV\u041d\u0438\u0434\u0435\u0440\u043b\u0430\u043d\u0434\u044b
p197
aV\u041d\u0438\u043a\u0430\u0440\u0430\u0433\u0443\u0430
p198
aV\u041d\u0438\u0443\u044d
p199
aV\u041d\u043e\u0432\u043e\u0439 \u0417\u0435\u043b\u0430\u043d\u0434\u0438\u0435\u0439
p200
aV\u041d\u043e\u0432\u0430\u044f \u0417\u0435\u043b\u0430\u043d\u0434\u0438\u044f
p201
aV\u041d\u043e\u0432\u0430\u044f \u041a\u0430\u043b\u0435\u0434\u043e\u043d\u0438\u044f
p202
aV\u0424\u0440\u0430\u043d\u0446\u0438\u0438
p203
aV\u041d\u043e\u0440\u0432\u0435\u0433\u0438\u044f
p204
aV\u041e\u0441\u0442\u0440\u043e\u0432 \u041d\u043e\u0440\u0444\u043e\u043b\u043a
p205
aV\u0410\u0432\u0441\u0442\u0440\u0430\u043b\u0438\u0438
p206
aV\u041e\u0410\u042d
p207
aV\u041e\u043c\u0430\u043d
p208
aV\u041f\u0430\u043a\u0438\u0441\u0442\u0430\u043d
p209
aV\u041f\u0430\u043b\u0430\u0443
p210
aV\u041f\u0430\u043b\u0435\u0441\u0442\u0438\u043d\u0430
p211
aV\u041f\u0430\u043b\u0435\u0441\u0442\u0438\u043d\u0441\u043a\u0430\u044f \u043d\u0430\u0446\u0438\u043e\u043d\u0430\u043b\u044c\u043d\u0430\u044f \u0430\u0434\u043c\u0438\u043d\u0438\u0441\u0442\u0440\u0430\u0446\u0438\u044f
p212
aV\u0413\u043e\u0441\u0443\u0434\u0430\u0440\u0441\u0442\u0432\u043e \u041f\u0430\u043b\u0435\u0441\u0442\u0438\u043d\u0430
p213
aV\u0418\u0437\u0440\u0430\u0438\u043b\u0435\u043c
p214
aV\u0421\u0435\u043a\u0442\u043e\u0440 \u0413\u0430\u0437\u0430
p215
aV\u0417\u0430\u043f\u0430\u0434\u043d\u044b\u0439 \u0431\u0435\u0440\u0435\u0433 \u0440\u0435\u043a\u0438 \u0418\u043e\u0440\u0434\u0430\u043d
p216
aV\u041f\u0430\u043d\u0430\u043c\u0430
p217
aV\u041f\u0430\u043f\u0443\u0430 \u2014 \u041d\u043e\u0432\u0430\u044f \u0413\u0432\u0438\u043d\u0435\u044f
p218
aV\u041f\u0430\u0440\u0430\u0433\u0432\u0430\u0439
p219
aV\u041f\u0435\u0440\u0443
p220
aV\u041e\u0441\u0442\u0440\u043e\u0432\u0430 \u041f\u0438\u0442\u043a\u044d\u0440\u043d
p221
aV\u041f\u043e\u043b\u044c\u0448\u0430
p222
aV\u041f\u043e\u0440\u0442\u0443\u0433\u0430\u043b\u0438\u044f
p223
aV\u041f\u0440\u0438\u0434\u043d\u0435\u0441\u0442\u0440\u043e\u0432\u0441\u043a\u0430\u044f \u041c\u043e\u043b\u0434\u0430\u0432\u0441\u043a\u0430\u044f \u0420\u0435\u0441\u043f\u0443\u0431\u043b\u0438\u043a\u0430
p224
aV\u0410\u0431\u0445\u0430\u0437\u0438\u0435\u0439
p225
aV\u042e\u0436\u043d\u043e\u0439 \u041e\u0441\u0435\u0442\u0438\u0435\u0439
p226
aV\u041d\u041a\u0420
p227
aV\u041c\u043e\u043b\u0434\u0430\u0432\u0438\u0438
p228
aV\u041f\u0443\u044d\u0440\u0442\u043e-\u0420\u0438\u043a\u043e
p229
aV\u0421\u0428\u0410
p230
aV\u0420\u0435\u044e\u043d\u044c\u043e\u043d
p231
aV\u041e\u0441\u0442\u0440\u043e\u0432 \u0420\u043e\u0436\u0434\u0435\u0441\u0442\u0432\u0430
p232
aV\u0410\u0432\u0441\u0442\u0440\u0430\u043b\u0438\u0438
p233
aV\u0420\u043e\u0441\u0441\u0438\u044f
p234
aV\u0420\u0443\u0430\u043d\u0434\u0430
p235
aV\u0420\u0443\u043c\u044b\u043d\u0438\u044f
p236
aV\u0421\u0430\u043b\u044c\u0432\u0430\u0434\u043e\u0440
p237
aV\u0421\u0430\u043c\u043e\u0430
p238
aV\u0421\u0430\u043d-\u041c\u0430\u0440\u0438\u043d\u043e
p239
aV\u0421\u0430\u043d-\u0422\u043e\u043c\u0435 \u0438 \u041f\u0440\u0438\u043d\u0441\u0438\u043f\u0438
p240
aV\u0421\u0430\u0445\u0430\u0440\u0441\u043a\u0430\u044f \u0410\u0440\u0430\u0431\u0441\u043a\u0430\u044f \u0414\u0435\u043c\u043e\u043a\u0440\u0430\u0442\u0438\u0447\u0435\u0441\u043a\u0430\u044f \u0420\u0435\u0441\u043f\u0443\u0431\u043b\u0438\u043a\u0430
p241
aV\u041c\u0430\u0440\u043e\u043a\u043a\u043e
p242
aV\u0421\u0430\u0443\u0434\u043e\u0432\u0441\u043a\u0430\u044f \u0410\u0440\u0430\u0432\u0438\u044f
p243
aV\u0421\u0432\u0430\u0437\u0438\u043b\u0435\u043d\u0434
p244
aV\u041e\u0441\u0442\u0440\u043e\u0432 \u0421\u0432\u044f\u0442\u043e\u0439 \u0415\u043b\u0435\u043d\u044b
p245
aV\u043e\u0441\u0442\u0440\u043e\u0432\u0430 \u0422\u0440\u0438\u0441\u0442\u0430\u043d-\u0434\u0430-\u041a\u0443\u043d\u044c\u044f
p246
aV\u043e\u0441\u0442\u0440\u043e\u0432 \u0412\u043e\u0437\u043d\u0435\u0441\u0435\u043d\u0438\u044f
p247
aV\u0421\u0435\u0432\u0435\u0440\u043d\u044b\u0435 \u041c\u0430\u0440\u0438\u0430\u043d\u0441\u043a\u0438\u0435 \u043e\u0441\u0442\u0440\u043e\u0432\u0430
p248
aV\u0421\u0428\u0410
p249
aV\u0422\u0443\u0440\u0435\u0446\u043a\u0430\u044f \u0420\u0435\u0441\u043f\u0443\u0431\u043b\u0438\u043a\u0430 \u0421\u0435\u0432\u0435\u0440\u043d\u043e\u0433\u043e \u041a\u0438\u043f\u0440\u0430
p250
aV\u0422\u0443\u0440\u0446\u0438\u0435\u0439
p251
aV\u041a\u0438\u043f\u0440\u0430
p252
aV\u041a\u0438\u043f\u0440\u0430
p253
aV\u0421\u0435\u0439\u0448\u0435\u043b\u044c\u0441\u043a\u0438\u0435 \u041e\u0441\u0442\u0440\u043e\u0432\u0430
p254
aV\u0421\u0435\u043d\u0435\u0433\u0430\u043b
p255
aV\u0421\u0435\u043d-\u041f\u044c\u0435\u0440 \u0438 \u041c\u0438\u043a\u0435\u043b\u043e\u043d
p256
aV\u0424\u0440\u0430\u043d\u0446\u0438\u0438
p257
aV\u0421\u0435\u043d\u0442-\u0412\u0438\u043d\u0441\u0435\u043d\u0442 \u0438 \u0413\u0440\u0435\u043d\u0430\u0434\u0438\u043d\u044b
p258
aV\u0421\u0435\u043d\u0442-\u041a\u0438\u0442\u0441 \u0438 \u041d\u0435\u0432\u0438\u0441
p259
aV\u0421\u0435\u043d\u0442-\u041b\u044e\u0441\u0438\u044f
p260
aV\u0421\u0435\u0440\u0431\u0438\u044f
p261
aV\u0421\u0438\u043b\u0435\u043d\u0434
p262
aV\u0421\u043e\u0435\u0434\u0438\u043d\u0451\u043d\u043d\u043e\u0433\u043e \u041a\u043e\u0440\u043e\u043b\u0435\u0432\u0441\u0442\u0432\u0430
p263
aV\u0421\u043e\u0435\u0434\u0438\u043d\u0451\u043d\u043d\u043e\u0435 \u041a\u043e\u0440\u043e\u043b\u0435\u0432\u0441\u0442\u0432\u043e
p264
aV\u0421\u0438\u043b\u0435\u043d\u0434
p265
aV\u041a\u043e\u043d\u0432\u0435\u043d\u0446\u0438\u0438 \u041c\u043e\u043d\u0442\u0435\u0432\u0438\u0434\u0435\u043e
p266
aV\u0421\u0438\u043d\u0442-\u041c\u0430\u0430\u0440\u0442\u0435\u043d
p267
aV\u041a\u043e\u0440\u043e\u043b\u0435\u0432\u0441\u0442\u0432\u0430 \u041d\u0438\u0434\u0435\u0440\u043b\u0430\u043d\u0434\u043e\u0432
p268
aV\u0421\u0438\u043d\u0433\u0430\u043f\u0443\u0440
p269
aV\u0421\u0438\u0440\u0438\u044f
p270
aV\u0421\u043b\u043e\u0432\u0430\u043a\u0438\u044f
p271
aV\u0421\u043b\u043e\u0432\u0435\u043d\u0438\u044f
p272
aV\u0421\u0428\u0410
p273
aV\u0421\u043e\u043b\u043e\u043c\u043e\u043d\u043e\u0432\u044b \u041e\u0441\u0442\u0440\u043e\u0432\u0430
p274
aV\u0421\u043e\u043c\u0430\u043b\u0438
p275
aV\u0421\u043e\u043c\u0430\u043b\u0438\u043b\u0435\u043d\u0434
p276
aV\u0421\u043e\u043c\u0430\u043b\u0438\u043b\u0435\u043d\u0434
p277
aV\u0421\u043e\u043c\u0430\u043b\u0438
p278
aV\u0421\u0443\u0434\u0430\u043d
p279
aV\u0421\u0443\u0440\u0438\u043d\u0430\u043c
p280
aV\u0421\u044c\u0435\u0440\u0440\u0430-\u041b\u0435\u043e\u043d\u0435
p281
aV\u0422\u0430\u0434\u0436\u0438\u043a\u0438\u0441\u0442\u0430\u043d
p282
aV\u0422\u0430\u0438\u043b\u0430\u043d\u0434
p283
aV\u0422\u0430\u043d\u0437\u0430\u043d\u0438\u044f
p284
aV\u0422\u0451\u0440\u043a\u0441 \u0438 \u041a\u0430\u0439\u043a\u043e\u0441
p285
aV\u0422\u043e\u0433\u043e
p286
aV\u0422\u043e\u043a\u0435\u043b\u0430\u0443
p287
aV\u041d\u043e\u0432\u043e\u0439 \u0417\u0435\u043b\u0430\u043d\u0434\u0438\u0438
p288
aV\u0422\u043e\u043d\u0433\u0430
p289
aV\u0422\u0440\u0438\u043d\u0438\u0434\u0430\u0434 \u0438 \u0422\u043e\u0431\u0430\u0433\u043e
p290
aV\u0422\u0443\u0432\u0430\u043b\u0443
p291
aV\u0422\u0443\u043d\u0438\u0441
p292
aV\u0422\u0443\u0440\u043a\u043c\u0435\u043d\u0438\u044f
p293
aV\u0422\u0443\u0440\u0446\u0438\u044f
p294
aV\u0423\u0433\u0430\u043d\u0434\u0430
p295
aV\u0423\u0437\u0431\u0435\u043a\u0438\u0441\u0442\u0430\u043d
p296
aV\u0423\u043a\u0440\u0430\u0438\u043d\u0430
p297
aV\u0423\u043e\u043b\u043b\u0438\u0441 \u0438 \u0424\u0443\u0442\u0443\u043d\u0430
p298
aV\u0424\u0440\u0430\u043d\u0446\u0438\u0438
p299
aV\u0423\u0440\u0443\u0433\u0432\u0430\u0439
p300
aV\u0424\u0430\u0440\u0435\u0440\u0441\u043a\u0438\u0435 \u043e\u0441\u0442\u0440\u043e\u0432\u0430
p301
aV\u0414\u0430\u043d\u0438\u0438
p302
aV\u0424\u0438\u0434\u0436\u0438
p303
aV\u0424\u0438\u043b\u0438\u043f\u043f\u0438\u043d\u044b
p304
aV\u0424\u0438\u043d\u043b\u044f\u043d\u0434\u0438\u044f
p305
aV\u0424\u043e\u043b\u043a\u043b\u0435\u043d\u0434\u0441\u043a\u0438\u0435 \u043e\u0441\u0442\u0440\u043e\u0432\u0430
p306
aV\u0410\u0440\u0433\u0435\u043d\u0442\u0438\u043d\u043e\u0439
p307
aV\u0424\u0440\u0430\u043d\u0446\u0438\u044f
p308
aV\u0424\u0440\u0430\u043d\u0446\u0443\u0437\u0441\u043a\u0430\u044f \u0413\u0432\u0438\u0430\u043d\u0430
p309
aV\u0424\u0440\u0430\u043d\u0446\u0443\u0437\u0441\u043a\u0430\u044f \u041f\u043e\u043b\u0438\u043d\u0435\u0437\u0438\u044f
p310
aV\u0424\u0440\u0430\u043d\u0446\u0438\u0438
p311
aV\u0424\u0440\u0430\u043d\u0446\u0438\u0438
p312
aV\u0425\u043e\u0440\u0432\u0430\u0442\u0438\u044f
p313
aV\u0426\u0410\u0420
p314
aV\u0427\u0430\u0434
p315
aV\u0427\u0435\u0440\u043d\u043e\u0433\u043e\u0440\u0438\u044f
p316
aV\u0427\u0435\u0445\u0438\u044f
p317
aV\u0427\u0438\u043b\u0438
p318
aV\u0428\u0432\u0435\u0439\u0446\u0430\u0440\u0438\u044f
p319
aV\u0428\u0432\u0435\u0446\u0438\u044f
p320
aV\u0428\u043f\u0438\u0446\u0431\u0435\u0440\u0433\u0435\u043d
p321
aV\u041d\u043e\u0440\u0432\u0435\u0433\u0438\u0435\u0439
p322
aV\u0428\u043f\u0438\u0446\u0431\u0435\u0440\u0433\u0435\u043d
p323
aV\u043e. \u041c\u0435\u0434\u0432\u0435\u0436\u0438\u0439
p324
aV\u0428\u0440\u0438-\u041b\u0430\u043d\u043a\u0430
p325
aV\u042d\u043a\u0432\u0430\u0434\u043e\u0440
p326
aV\u042d\u043a\u0432\u0430\u0442\u043e\u0440\u0438\u0430\u043b\u044c\u043d\u0430\u044f \u0413\u0432\u0438\u043d\u0435\u044f
p327
aV\u042d\u0440\u0438\u0442\u0440\u0435\u044f
p328
aV\u042d\u0441\u0442\u043e\u043d\u0438\u044f
p329
aV\u042d\u0444\u0438\u043e\u043f\u0438\u044f
p330
aV\u042e\u0436\u043d\u0430\u044f \u0413\u0435\u043e\u0440\u0433\u0438\u044f \u0438 \u042e\u0436\u043d\u044b\u0435 \u0421\u0430\u043d\u0434\u0432\u0438\u0447\u0435\u0432\u044b \u043e\u0441\u0442\u0440\u043e\u0432\u0430
p331
aV\u0410\u0440\u0433\u0435\u043d\u0442\u0438\u043d\u043e\u0439
p332
aV\u042e\u0436\u043d\u0430\u044f \u041e\u0441\u0435\u0442\u0438\u044f
p333
aV\u0420\u043e\u0441\u0441\u0438\u0439\u0441\u043a\u043e\u0439 \u0424\u0435\u0434\u0435\u0440\u0430\u0446\u0438\u0435\u0439
p334
aV\u041d\u0438\u043a\u0430\u0440\u0430\u0433\u0443\u0430
p335
aV\u0412\u0435\u043d\u0435\u0441\u0443\u044d\u043b\u043e\u0439
p336
aV\u041d\u0430\u0443\u0440\u0443
p337
aV\u0410\u0431\u0445\u0430\u0437\u0438\u0435\u0439
p338
aV\u041d\u041a\u0420
p339
aV\u041f\u041c\u0420
p340
aV\u0413\u0440\u0443\u0437\u0438\u0438
p341
aV\u0413\u0440\u0443\u0437\u0438\u0438
p342
aV\u042e\u0410\u0420
p343
aV\u042f\u043c\u0430\u0439\u043a\u0430
p344
aV\u042f\u043f\u043e\u043d\u0438\u044f
p345
a.